CCS PCM C Compiler, Version 5.015, 5967               21-nov-25 16:15

               Filename:   C:\Users\Monitor\Desktop\MicroCon\Projetos PCW\PROVA\exercicio 1\leds.lst

               ROM used:   97 words (1%)
                           Largest free fragment is 2048
               RAM used:   5 (1%) at main() level
                           12 (3%) worst case
               Stack used: 1 locations
               Stack size: 8

*
0000:  MOVLW  00
0001:  MOVWF  0A
0002:  GOTO   01A
0003:  NOP
....................  
.................... /* 
.................... A frequência (f) é quantas vezes o LED pisca por segundo. O período total (T) é 1000ms/f. 
.................... Como queremos que ele acenda e apague (50% ligado, 50% desligado), 
.................... o tempo de troca (Toggle) é a metade do período. 
.................... LED 1 (12 Hz): 1000/12 = 83ms. Troca a cada 41ms. 
.................... LED 2 (35 Hz): 1000/35 = 28ms. Troca a cada 14ms. 
.................... LED 3 (1055 Hz): 1000/1055 = 0,95ms. Troca a cada 0,475ms. 
.................... */ 
....................  
.................... #include <16F877A.h> 
.................... //////////// Standard Header file for the PIC16F877A device //////////////// 
.................... /////////////////////////////////////////////////////////////////////////// 
.................... ////        (C) Copyright 1996, 2013 Custom Computer Services          //// 
.................... //// This source code may only be used by licensed users of the CCS C  //// 
.................... //// compiler.  This source code may only be distributed to other      //// 
.................... //// licensed users of the CCS C compiler.  No other use, reproduction //// 
.................... //// or distribution is permitted without written permission.          //// 
.................... //// Derivative programs created using this software in object code    //// 
.................... //// form are not restricted in any way.                               //// 
.................... /////////////////////////////////////////////////////////////////////////// 
.................... #device PIC16F877A 
....................  
.................... #list 
....................  
.................... #device ADC=16 
....................  
.................... #FUSES NOWDT                    //No Watch Dog Timer 
.................... #FUSES NOBROWNOUT               //No brownout reset 
.................... #FUSES NOLVP                    //No low voltage prgming, B3(PIC16) or B5(PIC18) used for I/O 
....................  
.................... #use delay(crystal=20000000) 
0004:  MOVLW  27
0005:  MOVWF  04
0006:  BCF    03.7
0007:  MOVF   00,W
0008:  BTFSC  03.2
0009:  GOTO   017
000A:  MOVLW  06
000B:  MOVWF  78
000C:  CLRF   77
000D:  DECFSZ 77,F
000E:  GOTO   00D
000F:  DECFSZ 78,F
0010:  GOTO   00C
0011:  MOVLW  7B
0012:  MOVWF  77
0013:  DECFSZ 77,F
0014:  GOTO   013
0015:  DECFSZ 00,F
0016:  GOTO   00A
0017:  BCF    0A.3
0018:  BCF    0A.4
0019:  GOTO   033 (RETURN)
....................  
.................... #define LED1 PIN_D1 
.................... #define LED2 PIN_D2 
.................... #define LED3 PIN_D3 
....................  
.................... // --- Definição dos Tempos de Troca (Calculados acima) --- 
.................... #define TEMPO_LED1 41 // 12 Hz 
.................... #define TEMPO_LED2 14 // 35 Hz 
.................... #define TEMPO_LED3 0,475 // 1055 Hz 
....................  
....................  
.................... void main() 
001A:  MOVF   03,W
001B:  ANDLW  1F
001C:  MOVWF  03
001D:  BSF    03.5
001E:  BSF    1F.0
001F:  BSF    1F.1
0020:  BSF    1F.2
0021:  BCF    1F.3
0022:  MOVLW  07
0023:  MOVWF  1C
0024:  BCF    03.7
.................... { 
....................      // Configura o PORTD como saída (onde estão os LEDs) 
....................     set_tris_d(0x00); 
0025:  MOVLW  00
0026:  MOVWF  08
....................     output_d(0x00); // Começa com tudo apagado 
0027:  CLRF   08
0028:  BCF    03.5
0029:  CLRF   08
....................  
....................     // --- Variáveis Contadoras --- 
....................     // Elas vão contar quantos milissegundos se passaram para cada LED 
....................     unsigned int16 cont1 = 0; 
....................     unsigned int16 cont2 = 0; 
....................     unsigned int16 cont3 = 0; 
002A:  CLRF   22
002B:  CLRF   21
002C:  CLRF   24
002D:  CLRF   23
002E:  CLRF   26
002F:  CLRF   25
....................    
....................     
....................    while(TRUE) 
....................    { 
....................      
....................         // Atrasamos apenas 1ms por ciclo. Isso é rápido o suficiente 
....................         // para parecer que tudo está acontecendo ao mesmo tempo. 
....................         delay_ms(1); 
0030:  MOVLW  01
0031:  MOVWF  27
0032:  GOTO   004
....................  
....................         // Incrementa todos os contadores 
....................         cont1++; 
0033:  INCF   21,F
0034:  BTFSC  03.2
0035:  INCF   22,F
....................         cont2++; 
0036:  INCF   23,F
0037:  BTFSC  03.2
0038:  INCF   24,F
....................         cont3++; 
0039:  INCF   25,F
003A:  BTFSC  03.2
003B:  INCF   26,F
....................          
....................  
....................         // --- Lógica do LED 1  
....................         if (cont1 >= TEMPO_LED1) { 
003C:  MOVF   22,F
003D:  BTFSS  03.2
003E:  GOTO   043
003F:  MOVF   21,W
0040:  SUBLW  28
0041:  BTFSC  03.0
0042:  GOTO   04A
....................             output_toggle(LED1); // Inverte o estado do LED 
0043:  BSF    03.5
0044:  BCF    08.1
0045:  MOVLW  02
0046:  BCF    03.5
0047:  XORWF  08,F
....................             cont1 = 0;           // Reinicia o contador dele 
0048:  CLRF   22
0049:  CLRF   21
....................         } 
....................  
....................         // --- Lógica do LED 2 
....................         if (cont2 >= TEMPO_LED2) { 
004A:  MOVF   24,F
004B:  BTFSS  03.2
004C:  GOTO   051
004D:  MOVF   23,W
004E:  SUBLW  0D
004F:  BTFSC  03.0
0050:  GOTO   058
....................             output_toggle(LED2); 
0051:  BSF    03.5
0052:  BCF    08.2
0053:  MOVLW  04
0054:  BCF    03.5
0055:  XORWF  08,F
....................             cont2 = 0; 
0056:  CLRF   24
0057:  CLRF   23
....................         } 
....................  
....................         // --- Lógica do LED 3  
....................         if (cont3 >= TEMPO_LED3) { 
....................             output_toggle(LED3); 
0058:  BSF    03.5
0059:  BCF    08.3
005A:  MOVLW  08
005B:  BCF    03.5
005C:  XORWF  08,F
....................             cont3 = 0; 
005D:  CLRF   26
005E:  CLRF   25
....................         } 
005F:  GOTO   030
....................    } 
....................  
.................... } 
0060:  SLEEP

Configuration Fuses:
   Word  1: 3F32   HS NOWDT PUT NOBROWNOUT NOLVP NOCPD NOWRT NODEBUG NOPROTECT
