CCS PCM C Compiler, Version 5.015, 5967               21-nov-25 17:12

               Filename:   C:\Users\Monitor\Desktop\MicroCon\Projetos PCW\PROVA\EXERCICIOS 4\lm35.lst

               ROM used:   510 words (6%)
                           Largest free fragment is 2048
               RAM used:   5 (1%) at main() level
                           27 (7%) worst case
               Stack used: 4 locations
               Stack size: 8

*
0000:  MOVLW  01
0001:  MOVWF  0A
0002:  GOTO   1A2
0003:  NOP
.................... #include <lm35.h> 
.................... #include <16F877A.h> 
.................... //////////// Standard Header file for the PIC16F877A device //////////////// 
.................... /////////////////////////////////////////////////////////////////////////// 
.................... ////        (C) Copyright 1996, 2013 Custom Computer Services          //// 
.................... //// This source code may only be used by licensed users of the CCS C  //// 
.................... //// compiler.  This source code may only be distributed to other      //// 
.................... //// licensed users of the CCS C compiler.  No other use, reproduction //// 
.................... //// or distribution is permitted without written permission.          //// 
.................... //// Derivative programs created using this software in object code    //// 
.................... //// form are not restricted in any way.                               //// 
.................... /////////////////////////////////////////////////////////////////////////// 
.................... #device PIC16F877A 
0004:  BCF    0A.0
0005:  BCF    0A.1
0006:  BCF    0A.2
0007:  ADDWF  02,F
0008:  RETLW  28
0009:  RETLW  0F
000A:  RETLW  01
000B:  RETLW  06
000C:  DATA 0C,3B
000D:  DATA 61,36
000E:  DATA F5,32
000F:  DATA 31,10
0010:  DATA 3D,10
0011:  DATA 25,26
0012:  DATA 75,05
0013:  DATA 0D,00
*
00E4:  MOVF   0B,W
00E5:  MOVWF  26
00E6:  BCF    0B.7
00E7:  BSF    03.5
00E8:  BSF    03.6
00E9:  BSF    0C.7
00EA:  BSF    0C.0
00EB:  NOP
00EC:  NOP
00ED:  BCF    03.5
00EE:  BCF    03.6
00EF:  BTFSC  26.7
00F0:  BSF    0B.7
00F1:  BTFSC  03.0
00F2:  GOTO   11B
00F3:  BSF    03.6
00F4:  MOVF   0C,W
00F5:  ANDLW  7F
00F6:  BCF    03.6
00F7:  MOVWF  26
00F8:  BSF    03.6
00F9:  MOVF   0D,W
00FA:  BCF    03.6
00FB:  MOVWF  27
00FC:  BSF    03.6
00FD:  MOVF   0F,W
00FE:  BCF    03.6
00FF:  MOVWF  28
0100:  MOVF   26,W
0101:  MOVWF  2E
0102:  CALL   0AD
0103:  MOVF   27,W
0104:  BSF    03.6
0105:  MOVWF  0D
0106:  BCF    03.6
0107:  MOVF   28,W
0108:  BSF    03.6
0109:  MOVWF  0F
010A:  BCF    03.6
010B:  MOVF   0B,W
010C:  MOVWF  29
010D:  BCF    0B.7
010E:  BSF    03.5
010F:  BSF    03.6
0110:  BSF    0C.7
0111:  BSF    0C.0
0112:  NOP
0113:  NOP
0114:  BCF    03.5
0115:  BCF    03.6
0116:  BTFSC  29.7
0117:  BSF    0B.7
0118:  DECFSZ 25,F
0119:  GOTO   11B
011A:  GOTO   13A
011B:  BSF    03.6
011C:  RLF    0C,W
011D:  RLF    0E,W
011E:  ANDLW  7F
011F:  BCF    03.6
0120:  MOVWF  26
0121:  BSF    03.6
0122:  MOVF   0D,W
0123:  BCF    03.6
0124:  MOVWF  27
0125:  BSF    03.6
0126:  MOVF   0F,W
0127:  BCF    03.6
0128:  MOVWF  28
0129:  MOVF   26,W
012A:  MOVWF  2E
012B:  CALL   0AD
012C:  MOVF   27,W
012D:  BSF    03.6
012E:  MOVWF  0D
012F:  BCF    03.6
0130:  MOVF   28,W
0131:  BSF    03.6
0132:  MOVWF  0F
0133:  INCF   0D,F
0134:  BTFSC  03.2
0135:  INCF   0F,F
0136:  BCF    03.0
0137:  BCF    03.6
0138:  DECFSZ 25,F
0139:  GOTO   0E4
013A:  BCF    0A.3
013B:  BCF    0A.4
013C:  GOTO   1E9 (RETURN)
013D:  CLRF   2D
013E:  MOVF   04,W
013F:  MOVWF  2C
0140:  BCF    2D.0
0141:  BTFSC  03.7
0142:  BSF    2D.0
0143:  SWAPF  26,W
0144:  IORLW  F0
0145:  MOVWF  28
0146:  ADDWF  28,F
0147:  ADDLW  E2
0148:  MOVWF  29
0149:  ADDLW  32
014A:  MOVWF  2B
014B:  MOVF   26,W
014C:  ANDLW  0F
014D:  ADDWF  29,F
014E:  ADDWF  29,F
014F:  ADDWF  2B,F
0150:  ADDLW  E9
0151:  MOVWF  2A
0152:  ADDWF  2A,F
0153:  ADDWF  2A,F
0154:  SWAPF  25,W
0155:  ANDLW  0F
0156:  ADDWF  2A,F
0157:  ADDWF  2B,F
0158:  RLF    2A,F
0159:  RLF    2B,F
015A:  COMF   2B,F
015B:  RLF    2B,F
015C:  MOVF   25,W
015D:  ANDLW  0F
015E:  ADDWF  2B,F
015F:  RLF    28,F
0160:  MOVLW  07
0161:  MOVWF  27
0162:  MOVLW  0A
0163:  ADDWF  2B,F
0164:  DECF   2A,F
0165:  BTFSS  03.0
0166:  GOTO   163
0167:  ADDWF  2A,F
0168:  DECF   29,F
0169:  BTFSS  03.0
016A:  GOTO   167
016B:  ADDWF  29,F
016C:  DECF   28,F
016D:  BTFSS  03.0
016E:  GOTO   16B
016F:  ADDWF  28,F
0170:  DECF   27,F
0171:  BTFSS  03.0
0172:  GOTO   16F
0173:  MOVLW  27
0174:  MOVWF  04
0175:  BCF    03.7
0176:  MOVLW  07
0177:  ANDWF  2C,W
0178:  BCF    2C.6
0179:  ADDWF  04,F
017A:  MOVLW  2B
017B:  SUBWF  04,W
017C:  BTFSC  03.2
017D:  BSF    2C.6
017E:  MOVF   00,W
017F:  MOVWF  77
0180:  BTFSS  03.2
0181:  GOTO   18A
0182:  BTFSC  2C.6
0183:  GOTO   18A
0184:  BTFSC  2C.4
0185:  GOTO   19C
0186:  BTFSC  2C.3
0187:  GOTO   18A
0188:  MOVLW  20
0189:  GOTO   18D
018A:  BSF    2C.3
018B:  BCF    2C.4
018C:  MOVLW  30
018D:  ADDWF  77,F
018E:  CLRF   26
018F:  MOVF   04,W
0190:  MOVWF  25
0191:  BCF    26.0
0192:  BTFSC  03.7
0193:  BSF    26.0
0194:  MOVF   77,W
0195:  MOVWF  2E
0196:  CALL   0AD
0197:  MOVF   25,W
0198:  MOVWF  04
0199:  BCF    03.7
019A:  BTFSC  26.0
019B:  BSF    03.7
019C:  INCF   04,F
019D:  BTFSS  2C.6
019E:  GOTO   17A
019F:  BCF    0A.3
01A0:  BCF    0A.4
01A1:  GOTO   1F0 (RETURN)
....................  
.................... #list 
....................  
.................... #device ADC=16 
....................  
.................... #FUSES NOWDT                 	//No Watch Dog Timer 
.................... #FUSES NOBROWNOUT            	//No brownout reset 
.................... #FUSES NOLVP                 	//No low voltage prgming, B3(PIC16) or B5(PIC18) used for I/O 
....................  
.................... #use delay(crystal=20000000) 
*
0014:  MOVLW  2F
0015:  MOVWF  04
0016:  BCF    03.7
0017:  MOVF   00,W
0018:  BTFSC  03.2
0019:  GOTO   027
001A:  MOVLW  06
001B:  MOVWF  78
001C:  CLRF   77
001D:  DECFSZ 77,F
001E:  GOTO   01D
001F:  DECFSZ 78,F
0020:  GOTO   01C
0021:  MOVLW  7B
0022:  MOVWF  77
0023:  DECFSZ 77,F
0024:  GOTO   023
0025:  DECFSZ 00,F
0026:  GOTO   01A
0027:  RETURN
....................  
....................  
....................  
....................  
.................... #ifndef lcd_enable 
.................... #define lcd_enable pin_E1 // pino enable (E) do LCD -> conectado ao RE1 
.................... #define lcd_rs pin_E2     // pino rs (Register Select) do LCD -> conectado ao RE2 
.................... //#define lcd_rw pin_A4   // pino rw (Read/Write) do LCD (comentado, prov. aterrado na placa) 
.................... #define lcd_d4 pin_d4     // pino de dados d4 do LCD -> conectado ao RD4 
.................... #define lcd_d5 pin_d5     // pino de dados d5 do LCD -> conectado ao RD5 
.................... #define lcd_d6 pin_d6     // pino de dados d6 do LCD -> conectado ao RD6 
.................... #define lcd_d7 pin_d7     // pino de dados d7 do LCD -> conectado ao RD7 
.................... #endif 
....................  
.................... #include "mod_lcd.c" 
.................... /************************************************************************/ 
.................... /*  MOD_LCD.C - Biblioteca de manipulação de módulo LCD                 */ 
.................... /*                                                                      */ 
.................... /*  Autor: Fábio Pereira                                                */ 
.................... /*                                                                      */ 
.................... /************************************************************************/ 
....................  
.................... // As definições a seguir são utilizadas para acesso aos pinos do display 
.................... // caso o pino RW não seja utilizado, comente a definição lcd_rw 
.................... #ifndef lcd_enable 
.................... 	#define lcd_enable 		pin_e1		// pino enable do LCD 
.................... 	#define lcd_rs			pin_e0		// pino rs do LCD 
.................... 	//#define lcd_rw		pin_e2		// pino rw do LCD 
.................... 	#define lcd_d4			pin_d4		// pino de dados d4 do LCD 
.................... 	#define lcd_d5			pin_d5		// pino de dados d5 do LCD 
.................... 	#define lcd_d6			pin_d6		// pino de dados d6 do LCD 
.................... 	#define lcd_d7			pin_d7		// pino de dados d7 do LCD 
.................... #endif 
....................  
.................... #define lcd_type 2           // 0=5x7, 1=5x10, 2=2 linhas 
.................... #define lcd_seg_lin 0x40    // Endereço da segunda linha na RAM do LCD 
....................  
.................... // a constante abaixo define a seqüência de inicialização do módulo LCD 
.................... byte CONST INI_LCD[4] = {0x20 | (lcd_type << 2), 0xf, 1, 6}; 
....................  
.................... byte lcd_le_byte() 
.................... // lê um byte do LCD (somente com pino RW) 
.................... { 
.................... 	byte dado; 
.................... 	// configura os pinos de dados como entradas 
.................... 	input(lcd_d4); 
.................... 	input(lcd_d5); 
.................... 	input(lcd_d6); 
.................... 	input(lcd_d7); 
.................... 	// se o pino rw for utilizado, coloca em 1 
.................... 	#ifdef lcd_rw 
.................... 		output_high(lcd_rw); 
.................... 	#endif 
....................    output_high(lcd_enable); // habilita display 
.................... 	dado = 0;	// zera a variável de leitura 
.................... 	// lê os quatro bits mais significativos 
.................... 	if (input(lcd_d7)) bit_set(dado,7); 
.................... 	if (input(lcd_d6)) bit_set(dado,6); 
.................... 	if (input(lcd_d5)) bit_set(dado,5); 
.................... 	if (input(lcd_d4)) bit_set(dado,4); 
.................... 	// dá um pulso na linha enable 
.................... 	output_low(lcd_enable); 
.................... 	output_high(lcd_enable); 
.................... 	// lê os quatro bits menos significativos 
.................... 	if (input(lcd_d7)) bit_set(dado,3); 
.................... 	if (input(lcd_d6)) bit_set(dado,2); 
.................... 	if (input(lcd_d5)) bit_set(dado,1); 
.................... 	if (input(lcd_d4)) bit_set(dado,0); 
.................... 	output_low(lcd_enable);	// desabilita o display 
.................... 	return dado;	// retorna o byte lido 
.................... } 
....................  
.................... void lcd_envia_nibble( byte dado ) 
.................... // envia um dado de quatro bits para o display 
.................... { 
.................... 	// coloca os quatro bits nas saidas 
.................... 	output_bit(lcd_d4,bit_test(dado,0)); 
0028:  BTFSC  36.0
0029:  GOTO   02C
002A:  BCF    08.4
002B:  GOTO   02D
002C:  BSF    08.4
002D:  BSF    03.5
002E:  BCF    08.4
.................... 	output_bit(lcd_d5,bit_test(dado,1)); 
002F:  BCF    03.5
0030:  BTFSC  36.1
0031:  GOTO   034
0032:  BCF    08.5
0033:  GOTO   035
0034:  BSF    08.5
0035:  BSF    03.5
0036:  BCF    08.5
.................... 	output_bit(lcd_d6,bit_test(dado,2)); 
0037:  BCF    03.5
0038:  BTFSC  36.2
0039:  GOTO   03C
003A:  BCF    08.6
003B:  GOTO   03D
003C:  BSF    08.6
003D:  BSF    03.5
003E:  BCF    08.6
.................... 	output_bit(lcd_d7,bit_test(dado,3)); 
003F:  BCF    03.5
0040:  BTFSC  36.3
0041:  GOTO   044
0042:  BCF    08.7
0043:  GOTO   045
0044:  BSF    08.7
0045:  BSF    03.5
0046:  BCF    08.7
.................... 	// dá um pulso na linha enable 
.................... 	output_high(lcd_enable); 
0047:  BCF    09.1
0048:  BCF    03.5
0049:  BSF    09.1
.................... 	output_low(lcd_enable); 
004A:  BSF    03.5
004B:  BCF    09.1
004C:  BCF    03.5
004D:  BCF    09.1
004E:  RETURN
.................... } 
....................  
....................  
.................... void lcd_envia_byte( boolean endereco, byte dado ) 
.................... { 
.................... 	// coloca a linha rs em 0 
.................... 	output_low(lcd_rs); 
004F:  BSF    03.5
0050:  BCF    09.2
0051:  BCF    03.5
0052:  BCF    09.2
.................... 	// aguarda o display ficar desocupado 
.................... 	//while ( bit_test(lcd_le_byte(),7) ) ; 
.................... 	// configura a linha rs dependendo do modo selecionado 
.................... 	output_bit(lcd_rs,endereco); 
0053:  MOVF   33,F
0054:  BTFSS  03.2
0055:  GOTO   058
0056:  BCF    09.2
0057:  GOTO   059
0058:  BSF    09.2
0059:  BSF    03.5
005A:  BCF    09.2
.................... 	delay_us(100);	// aguarda 100 us 
005B:  MOVLW  A6
005C:  MOVWF  77
005D:  DECFSZ 77,F
005E:  GOTO   05D
005F:  NOP
.................... 	// caso a linha rw esteja definida, coloca em 0 
.................... 	#ifdef lcd_rw 
.................... 		output_low(lcd_rw); 
.................... 	#endif 
.................... 	// desativa linha enable 
.................... 	output_low(lcd_enable); 
0060:  BCF    09.1
0061:  BCF    03.5
0062:  BCF    09.1
.................... 	// envia a primeira parte do byte 
.................... 	lcd_envia_nibble(dado >> 4); 
0063:  SWAPF  34,W
0064:  MOVWF  35
0065:  MOVLW  0F
0066:  ANDWF  35,F
0067:  MOVF   35,W
0068:  MOVWF  36
0069:  CALL   028
.................... 	// envia a segunda parte do byte 
.................... 	lcd_envia_nibble(dado & 0x0f); 
006A:  MOVF   34,W
006B:  ANDLW  0F
006C:  MOVWF  35
006D:  MOVWF  36
006E:  CALL   028
006F:  RETURN
.................... } 
....................  
....................  
.................... void lcd_ini() 
.................... // rotina de inicialização do display 
.................... { 
.................... 	byte conta; 
.................... 	output_low(lcd_d4); 
0070:  BSF    03.5
0071:  BCF    08.4
0072:  BCF    03.5
0073:  BCF    08.4
.................... 	output_low(lcd_d5); 
0074:  BSF    03.5
0075:  BCF    08.5
0076:  BCF    03.5
0077:  BCF    08.5
.................... 	output_low(lcd_d6); 
0078:  BSF    03.5
0079:  BCF    08.6
007A:  BCF    03.5
007B:  BCF    08.6
.................... 	output_low(lcd_d7); 
007C:  BSF    03.5
007D:  BCF    08.7
007E:  BCF    03.5
007F:  BCF    08.7
.................... 	output_low(lcd_rs); 
0080:  BSF    03.5
0081:  BCF    09.2
0082:  BCF    03.5
0083:  BCF    09.2
.................... 	#ifdef lcd_rw 
.................... 		output_high(lcd_rw); 
.................... 	#endif 
.................... 	output_low(lcd_enable); 
0084:  BSF    03.5
0085:  BCF    09.1
0086:  BCF    03.5
0087:  BCF    09.1
.................... 	delay_ms(15); 
0088:  MOVLW  0F
0089:  MOVWF  2F
008A:  CALL   014
.................... 	// envia uma seqüência de 3 vezes 0x03 
.................... 	// e depois 0x02 para configurar o módulo 
.................... 	// para modo de 4 bits 
.................... 	for(conta=1;conta<=3;++conta) 
008B:  MOVLW  01
008C:  MOVWF  25
008D:  MOVF   25,W
008E:  SUBLW  03
008F:  BTFSS  03.0
0090:  GOTO   099
.................... 	{ 
.................... 		lcd_envia_nibble(3); 
0091:  MOVLW  03
0092:  MOVWF  36
0093:  CALL   028
.................... 		delay_ms(5); 
0094:  MOVLW  05
0095:  MOVWF  2F
0096:  CALL   014
0097:  INCF   25,F
0098:  GOTO   08D
.................... 	} 
.................... 	lcd_envia_nibble(2); 
0099:  MOVLW  02
009A:  MOVWF  36
009B:  CALL   028
.................... 	// envia string de inicialização do display 
.................... 	for(conta=0;conta<=3;++conta) lcd_envia_byte(0,INI_LCD[conta]); 
009C:  CLRF   25
009D:  MOVF   25,W
009E:  SUBLW  03
009F:  BTFSS  03.0
00A0:  GOTO   0AA
00A1:  MOVF   25,W
00A2:  CALL   004
00A3:  MOVWF  26
00A4:  CLRF   33
00A5:  MOVF   26,W
00A6:  MOVWF  34
00A7:  CALL   04F
00A8:  INCF   25,F
00A9:  GOTO   09D
00AA:  BCF    0A.3
00AB:  BCF    0A.4
00AC:  GOTO   1BE (RETURN)
.................... } 
....................  
.................... void lcd_pos_xy( byte x, byte y) 
.................... { 
....................    byte endereco; 
....................    if(y!=1) 
*
00C7:  DECFSZ 30,W
00C8:  GOTO   0CA
00C9:  GOTO   0CD
....................    	endereco = lcd_seg_lin; 
00CA:  MOVLW  40
00CB:  MOVWF  31
00CC:  GOTO   0CE
....................    else 
....................    	endereco = 0; 
00CD:  CLRF   31
....................    endereco += x-1; 
00CE:  MOVLW  01
00CF:  SUBWF  2F,W
00D0:  ADDWF  31,F
....................    lcd_envia_byte(0,0x80|endereco); 
00D1:  MOVF   31,W
00D2:  IORLW  80
00D3:  MOVWF  32
00D4:  CLRF   33
00D5:  MOVF   32,W
00D6:  MOVWF  34
00D7:  CALL   04F
.................... } 
....................  
.................... void lcd_escreve( char c) 
.................... // envia caractere para o display 
.................... { 
....................    switch (c) 
*
00AD:  MOVF   2E,W
00AE:  XORLW  0C
00AF:  BTFSC  03.2
00B0:  GOTO   0BB
00B1:  XORLW  06
00B2:  BTFSC  03.2
00B3:  GOTO   0C3
00B4:  XORLW  07
00B5:  BTFSC  03.2
00B6:  GOTO   0C3
00B7:  XORLW  05
00B8:  BTFSC  03.2
00B9:  GOTO   0D9
00BA:  GOTO   0DE
.................... 	{ 
....................      case '\f' 	:	lcd_envia_byte(0,1); 
00BB:  CLRF   33
00BC:  MOVLW  01
00BD:  MOVWF  34
00BE:  CALL   04F
.................... 	  			delay_ms(2); 
00BF:  MOVLW  02
00C0:  MOVWF  2F
00C1:  CALL   014
.................... 				break; 
00C2:  GOTO   0E3
....................      case '\n'	: 
.................... 	 case '\r' 	:	lcd_pos_xy(1,2); 
00C3:  MOVLW  01
00C4:  MOVWF  2F
00C5:  MOVLW  02
00C6:  MOVWF  30
.................... 	  			break; 
*
00D8:  GOTO   0E3
....................      case '\b' 	:	lcd_envia_byte(0,0x10); 
00D9:  CLRF   33
00DA:  MOVLW  10
00DB:  MOVWF  34
00DC:  CALL   04F
.................... 	  			break; 
00DD:  GOTO   0E3
....................      default	:	lcd_envia_byte(1,c); 
00DE:  MOVLW  01
00DF:  MOVWF  33
00E0:  MOVF   2E,W
00E1:  MOVWF  34
00E2:  CALL   04F
.................... 	  			break; 
....................    } 
00E3:  RETURN
.................... } 
....................  
.................... char lcd_le( byte x, byte y) 
.................... // le caractere do display 
.................... { 
.................... 	char valor; 
.................... 	// seleciona a posição do caractere 
.................... 	lcd_pos_xy(x,y); 
.................... 	// ativa rs 
.................... 	output_high(lcd_rs); 
.................... 	// lê o caractere 
.................... 	valor = lcd_le_byte(); 
.................... 	// desativa rs 
.................... 	output_low(lcd_rs); 
.................... 	// retorna o valor do caractere 
.................... 	return valor; 
.................... } 
....................  
....................  
....................  
.................... void main() 
*
01A2:  MOVF   03,W
01A3:  ANDLW  1F
01A4:  MOVWF  03
01A5:  BSF    03.5
01A6:  BSF    1F.0
01A7:  BSF    1F.1
01A8:  BSF    1F.2
01A9:  BCF    1F.3
01AA:  MOVLW  07
01AB:  MOVWF  1C
01AC:  BCF    03.7
.................... { 
....................    setup_adc_ports(AN0); 
01AD:  BCF    1F.0
01AE:  BSF    1F.1
01AF:  BSF    1F.2
01B0:  BSF    1F.3
....................    setup_adc(ADC_CLOCK_DIV_2); 
01B1:  BCF    1F.6
01B2:  BCF    03.5
01B3:  BCF    1F.6
01B4:  BCF    1F.7
01B5:  BSF    03.5
01B6:  BCF    1F.7
01B7:  BCF    03.5
01B8:  BSF    1F.0
....................    unsigned int16 valor1=0, valor2=0; 
01B9:  CLRF   22
01BA:  CLRF   21
01BB:  CLRF   24
01BC:  CLRF   23
....................     
....................     
....................     lcd_ini();     // Inicializa o display (função que está no 'mod_lcd.c') 
01BD:  GOTO   070
....................     delay_ms(50);  // Pequena pausa para o LCD estabilizar 
01BE:  MOVLW  32
01BF:  MOVWF  2F
01C0:  CALL   014
....................      
....................      
....................     
....................    while(TRUE) 
....................    { 
....................       // --- Leitura do Canal 1 (Temperatura) --- 
....................         set_adc_channel(0);  // 1. Seleciona o Canal 0 (AN0 / RA0) 
01C1:  MOVLW  00
01C2:  MOVWF  78
01C3:  MOVF   1F,W
01C4:  ANDLW  C7
01C5:  IORWF  78,W
01C6:  MOVWF  1F
....................         delay_us(50);        // 2. Espera 50 microssegundos para o canal estabilizar 
01C7:  MOVLW  52
01C8:  MOVWF  77
01C9:  DECFSZ 77,F
01CA:  GOTO   1C9
01CB:  GOTO   1CC
01CC:  NOP
....................         valor1 = read_adc(); // 3. Faz a leitura e armazena em 'valor1' 
01CD:  BSF    1F.2
01CE:  BTFSC  1F.2
01CF:  GOTO   1CE
01D0:  BSF    03.5
01D1:  MOVF   1E,W
01D2:  BCF    03.5
01D3:  MOVWF  21
01D4:  MOVF   1E,W
01D5:  MOVWF  22
....................         delay_us(50); 
01D6:  MOVLW  52
01D7:  MOVWF  77
01D8:  DECFSZ 77,F
01D9:  GOTO   1D8
01DA:  GOTO   1DB
01DB:  NOP
....................         delay_ms(150);       // Pausa (para não sobrecarregar) 
01DC:  MOVLW  96
01DD:  MOVWF  2F
01DE:  CALL   014
....................          
....................         // 4. Mostra o valor1 no LCD 
....................         // \f = Limpa a tela 
....................         // %Lu = Formato para 'long unsigned int' (int16) 
....................         // \n\r = Pula para a próxima linha 
....................         printf(lcd_escreve,"\fvalue1 = %Lu\n\r", valor1); 
01DF:  MOVLW  0C
01E0:  BSF    03.6
01E1:  MOVWF  0D
01E2:  MOVLW  00
01E3:  MOVWF  0F
01E4:  BCF    03.0
01E5:  MOVLW  0A
01E6:  BCF    03.6
01E7:  MOVWF  25
01E8:  GOTO   0E4
01E9:  MOVLW  10
01EA:  MOVWF  04
01EB:  MOVF   22,W
01EC:  MOVWF  26
01ED:  MOVF   21,W
01EE:  MOVWF  25
01EF:  GOTO   13D
01F0:  MOVLW  0A
01F1:  MOVWF  2E
01F2:  CALL   0AD
01F3:  MOVLW  0D
01F4:  MOVWF  2E
01F5:  CALL   0AD
....................         delay_us(50); 
01F6:  MOVLW  52
01F7:  MOVWF  77
01F8:  DECFSZ 77,F
01F9:  GOTO   1F8
01FA:  GOTO   1FB
01FB:  NOP
01FC:  GOTO   1C1
....................    } 
....................  
.................... } 
01FD:  SLEEP

Configuration Fuses:
   Word  1: 3F32   HS NOWDT PUT NOBROWNOUT NOLVP NOCPD NOWRT NODEBUG NOPROTECT
